target datalayout = "e-m:e-p270:32:32-p271:32:32-p272:64:64-i64:64-i128:128-f80:128-n8:16:32:64-S128"
target triple = "x86_64-pc-linux-gnu"

%struct.Fraig_NodeStruct_t_ = type { i32, i32, i32, i32, i32, i32, i32, ptr, ptr, ptr, ptr, ptr, ptr, ptr, ptr, i32, i32, ptr, ptr, ptr, ptr, ptr, ptr, ptr }

; Function Attrs: nounwind uwtable
define i32 @Fraig_NodeIsInSupergate(ptr noundef %0, ptr noundef %1) #0 {
  %3 = alloca i32, align 4
  %4 = alloca ptr, align 8
  %5 = alloca ptr, align 8
  %6 = alloca i32, align 4
  %7 = alloca i32, align 4
  store ptr %0, ptr %4, align 8
  store ptr %1, ptr %5, align 8
  %8 = load ptr, ptr %4, align 8
  %9 = ptrtoint ptr %8 to i64
  %10 = and i64 %9, -2
  %11 = inttoptr i64 %10 to ptr
  %12 = load ptr, ptr %5, align 8
  %13 = ptrtoint ptr %12 to i64
  %14 = and i64 %13, -2
  %15 = inttoptr i64 %14 to ptr
  %16 = icmp eq ptr %11, %15
  br i1 %16, label %17, label %22

17:                                               ; preds = %2
  %18 = load ptr, ptr %4, align 8
  %19 = load ptr, ptr %5, align 8
  %20 = icmp eq ptr %18, %19
  %21 = select i1 %20, i32 1, i32 -1
  store i32 %21, ptr %3, align 4
  br label %58

22:                                               ; preds = %2
  %23 = load ptr, ptr %4, align 8
  %24 = ptrtoint ptr %23 to i64
  %25 = and i64 %24, 1
  %26 = trunc i64 %25 to i32
  %27 = icmp ne i32 %26, 0
  br i1 %27, label %32, label %28

28:                                               ; preds = %22
  %29 = load ptr, ptr %4, align 8
  %30 = call i32 @Fraig_NodeIsVar(ptr noundef %29)
  %31 = icmp ne i32 %30, 0
  br i1 %31, label %32, label %33

32:                                               ; preds = %28, %22
  store i32 0, ptr %3, align 4
  br label %58

33:                                               ; preds = %28
  %34 = load ptr, ptr %4, align 8
  %35 = getelementptr inbounds %struct.Fraig_NodeStruct_t_, ptr %34, i32 0, i32 7
  %36 = load ptr, ptr %35, align 8
  %37 = load ptr, ptr %5, align 8
  %38 = call i32 @Fraig_NodeIsInSupergate(ptr noundef %36, ptr noundef %37)
  store i32 %38, ptr %6, align 4
  %39 = load ptr, ptr %4, align 8
  %40 = getelementptr inbounds %struct.Fraig_NodeStruct_t_, ptr %39, i32 0, i32 8
  %41 = load ptr, ptr %40, align 8
  %42 = load ptr, ptr %5, align 8
  %43 = call i32 @Fraig_NodeIsInSupergate(ptr noundef %41, ptr noundef %42)
  store i32 %43, ptr %7, align 4
  %44 = load i32, ptr %6, align 4
  %45 = icmp eq i32 %44, -1
  br i1 %45, label %49, label %46

46:                                               ; preds = %33
  %47 = load i32, ptr %7, align 4
  %48 = icmp eq i32 %47, -1
  br i1 %48, label %49, label %50

49:                                               ; preds = %46, %33
  store i32 -1, ptr %3, align 4
  br label %58

50:                                               ; preds = %46
  %51 = load i32, ptr %6, align 4
  %52 = icmp eq i32 %51, 1
  br i1 %52, label %56, label %53

53:                                               ; preds = %50
  %54 = load i32, ptr %7, align 4
  %55 = icmp eq i32 %54, 1
  br i1 %55, label %56, label %57

56:                                               ; preds = %53, %50
  store i32 1, ptr %3, align 4
  br label %58

57:                                               ; preds = %53
  store i32 0, ptr %3, align 4
  br label %58

58:                                               ; preds = %57, %56, %49, %32, %17
  %59 = load i32, ptr %3, align 4
  ret i32 %59
}